target datalayout = "e-m:e-p270:32:32-p271:32:32-p272:64:64-i64:64-i128:128-f80:128-n8:16:32:64-S128"
target triple = "x86_64-pc-linux-gnu"

%struct.AACADTSHeaderInfo = type { i32, i32, i32, i8, i8, i8, i8, i8, i32 }
%struct.AVCodecParserContext = type { ptr, ptr, i64, i64, i64, i32, i32, i64, i64, i64, i64, i32, i32, [4 x i64], [4 x i64], [4 x i64], i32, i64, [4 x i64], i32, i32, i32, i32, [4 x i64], i64, i64, i32, i32, i32, i32, i32, i32, i32, i32, i32 }
%struct.FTRParseContext = type { %struct.ParseContext, i32, i32, i32 }
%struct.ParseContext = type { ptr, i32, i32, i32, i32, i32, i32, i32, i64 }
%struct.AVCodecContext = type { ptr, i32, i32, ptr, i32, i32, ptr, ptr, ptr, i64, i32, i32, ptr, i32, %struct.AVRational, %struct.AVRational, %struct.AVRational, i32, i32, i32, i32, i32, %struct.AVRational, i32, i32, i32, i32, i32, i32, i32, i32, i32, i32, i32, ptr, ptr, i32, float, float, float, float, float, float, float, float, float, i32, i32, i32, i32, i32, i32, i32, i32, i32, i32, i32, i32, ptr, ptr, ptr, i32, i32, i32, i32, i32, i32, i32, i32, i32, i32, %struct.AVChannelLayout, i32, i32, i32, i32, i32, i32, i32, i32, ptr, i32, i32, i32, float, float, i32, i32, i32, i32, i32, ptr, i64, i64, float, float, i32, i32, ptr, ptr, i32, i32, i32, i32, i32, ptr, ptr, ptr, ptr, i32, i32, [8 x i64], i32, i32, i32, i32, i32, i32, i32, ptr, ptr, i32, i32, i32, i32, i32, i32, i32, i32, i32, i32, ptr, ptr, i32, i32, ptr, ptr, ptr, ptr, i32, i32, i64, i32, i32, i64, ptr, i64, ptr, i32, ptr, i32 }
%struct.AVRational = type { i32, i32 }
%struct.AVChannelLayout = type { i32, i32, %union.anon, ptr }
%union.anon = type { i64 }

@ff_mpeg4audio_channels = external constant [15 x i8], align 1

; Function Attrs: alwaysinline nounwind willreturn memory(none) uwtable
define internal i32 @av_bswap32(i32 noundef %0) #4 {
  %2 = alloca i32, align 4
  store i32 %0, ptr %2, align 4, !tbaa !18
  %3 = load i32, ptr %2, align 4, !tbaa !18
  %4 = shl i32 %3, 8
  %5 = and i32 %4, 65280
  %6 = load i32, ptr %2, align 4, !tbaa !18
  %7 = lshr i32 %6, 8
  %8 = and i32 %7, 255
  %9 = or i32 %5, %8
  %10 = shl i32 %9, 16
  %11 = load i32, ptr %2, align 4, !tbaa !18
  %12 = lshr i32 %11, 16
  %13 = shl i32 %12, 8
  %14 = and i32 %13, 65280
  %15 = load i32, ptr %2, align 4, !tbaa !18
  %16 = lshr i32 %15, 16
  %17 = lshr i32 %16, 8
  %18 = and i32 %17, 255
  %19 = or i32 %14, %18
  %20 = or i32 %10, %19
  ret i32 %20
}

; Function Attrs: inlinehint nounwind willreturn memory(none) uwtable
define internal i64 @av_bswap64(i64 noundef %0) #3 {
  %2 = alloca i64, align 8
  store i64 %0, ptr %2, align 8, !tbaa !29
  %3 = load i64, ptr %2, align 8, !tbaa !29
  %4 = trunc i64 %3 to i32
  %5 = call i32 @av_bswap32(i32 noundef %4) #6
  %6 = zext i32 %5 to i64
  %7 = shl i64 %6, 32
  %8 = load i64, ptr %2, align 8, !tbaa !29
  %9 = lshr i64 %8, 32
  %10 = trunc i64 %9 to i32
  %11 = call i32 @av_bswap32(i32 noundef %10) #6
  %12 = zext i32 %11 to i64
  %13 = or i64 %7, %12
  ret i64 %13
}

; Function Attrs: nounwind uwtable
define internal i32 @ftr_parse(ptr noundef %0, ptr noundef %1, ptr noundef %2, ptr noundef %3, ptr noundef %4, i32 noundef %5) #0 {
  %7 = alloca i32, align 4
  %8 = alloca ptr, align 8
  %9 = alloca ptr, align 8
  %10 = alloca ptr, align 8
  %11 = alloca ptr, align 8
  %12 = alloca ptr, align 8
  %13 = alloca i32, align 4
  %14 = alloca [72 x i8], align 16
  %15 = alloca ptr, align 8
  %16 = alloca i64, align 8
  %17 = alloca i32, align 4
  %18 = alloca %struct.AACADTSHeaderInfo, align 4
  %19 = alloca i32, align 4
  %20 = alloca i32, align 4
  %21 = alloca i32, align 4
  store ptr %0, ptr %8, align 8, !tbaa !4
  store ptr %1, ptr %9, align 8, !tbaa !9
  store ptr %2, ptr %10, align 8, !tbaa !11
  store ptr %3, ptr %11, align 8, !tbaa !14
  store ptr %4, ptr %12, align 8, !tbaa !16
  store i32 %5, ptr %13, align 4, !tbaa !18
  call void @llvm.lifetime.start.p0(i64 72, ptr %14) #5
  call void @llvm.lifetime.start.p0(i64 8, ptr %15) #5
  %22 = load ptr, ptr %8, align 8, !tbaa !4
  %23 = getelementptr inbounds nuw %struct.AVCodecParserContext, ptr %22, i32 0, i32 0
  %24 = load ptr, ptr %23, align 8, !tbaa !20
  store ptr %24, ptr %15, align 8, !tbaa !24
  call void @llvm.lifetime.start.p0(i64 8, ptr %16) #5
  %25 = load ptr, ptr %15, align 8, !tbaa !24
  %26 = getelementptr inbounds nuw %struct.FTRParseContext, ptr %25, i32 0, i32 0
  %27 = getelementptr inbounds nuw %struct.ParseContext, ptr %26, i32 0, i32 8
  %28 = load i64, ptr %27, align 8, !tbaa !26
  store i64 %28, ptr %16, align 8, !tbaa !29
  call void @llvm.lifetime.start.p0(i64 4, ptr %17) #5
  store i32 -100, ptr %17, align 4, !tbaa !18
  call void @llvm.lifetime.start.p0(i64 24, ptr %18) #5
  call void @llvm.lifetime.start.p0(i64 4, ptr %19) #5
  %29 = load ptr, ptr %11, align 8, !tbaa !14
  store i32 0, ptr %29, align 4, !tbaa !18
  %30 = load ptr, ptr %10, align 8, !tbaa !11
  store ptr null, ptr %30, align 8, !tbaa !16
  %31 = load ptr, ptr %8, align 8, !tbaa !4
  %32 = getelementptr inbounds nuw %struct.AVCodecParserContext, ptr %31, i32 0, i32 16
  %33 = load i32, ptr %32, align 8, !tbaa !30
  %34 = and i32 %33, 1
  %35 = icmp ne i32 %34, 0
  br i1 %35, label %36, label %38

36:                                               ; preds = %6
  %37 = load i32, ptr %13, align 4, !tbaa !18
  store i32 %37, ptr %17, align 4, !tbaa !18
  br label %147

38:                                               ; preds = %6
  call void @llvm.lifetime.start.p0(i64 4, ptr %20) #5
  store i32 0, ptr %20, align 4, !tbaa !18
  br label %39

39:                                               ; preds = %128, %38
  %40 = load i32, ptr %20, align 4, !tbaa !18
  %41 = load i32, ptr %13, align 4, !tbaa !18
  %42 = icmp slt i32 %40, %41
  br i1 %42, label %44, label %43

43:                                               ; preds = %39
  store i32 2, ptr %21, align 4
  br label %131

44:                                               ; preds = %39
  %45 = load ptr, ptr %15, align 8, !tbaa !24
  %46 = getelementptr inbounds nuw %struct.FTRParseContext, ptr %45, i32 0, i32 1
  %47 = load i32, ptr %46, align 8, !tbaa !31
  %48 = icmp sgt i32 %47, 0
  br i1 %48, label %49, label %79

49:                                               ; preds = %44
  %50 = load ptr, ptr %15, align 8, !tbaa !24
  %51 = getelementptr inbounds nuw %struct.FTRParseContext, ptr %50, i32 0, i32 1
  %52 = load i32, ptr %51, align 8, !tbaa !31
  %53 = add nsw i32 %52, -1
  store i32 %53, ptr %51, align 8, !tbaa !31
  %54 = load ptr, ptr %15, align 8, !tbaa !24
  %55 = getelementptr inbounds nuw %struct.FTRParseContext, ptr %54, i32 0, i32 1
  %56 = load i32, ptr %55, align 8, !tbaa !31
  %57 = icmp eq i32 %56, 0
  br i1 %57, label %58, label %71

58:                                               ; preds = %49
  %59 = load ptr, ptr %15, align 8, !tbaa !24
  %60 = getelementptr inbounds nuw %struct.FTRParseContext, ptr %59, i32 0, i32 2
  %61 = load i32, ptr %60, align 4, !tbaa !32
  %62 = icmp ne i32 %61, 0
  br i1 %62, label %63, label %71

63:                                               ; preds = %58
  %64 = load ptr, ptr %15, align 8, !tbaa !24
  %65 = getelementptr inbounds nuw %struct.FTRParseContext, ptr %64, i32 0, i32 2
  store i32 0, ptr %65, align 4, !tbaa !32
  %66 = load i32, ptr %20, align 4, !tbaa !18
  store i32 %66, ptr %17, align 4, !tbaa !18
  %67 = load ptr, ptr %8, align 8, !tbaa !4
  %68 = getelementptr inbounds nuw %struct.AVCodecParserContext, ptr %67, i32 0, i32 26
  store i32 1024, ptr %68, align 8, !tbaa !33
  %69 = load ptr, ptr %8, align 8, !tbaa !4
  %70 = getelementptr inbounds nuw %struct.AVCodecParserContext, ptr %69, i32 0, i32 19
  store i32 1, ptr %70, align 8, !tbaa !34
  store i32 2, ptr %21, align 4
  br label %131

71:                                               ; preds = %58, %49
  %72 = load ptr, ptr %15, align 8, !tbaa !24
  %73 = getelementptr inbounds nuw %struct.FTRParseContext, ptr %72, i32 0, i32 1
  %74 = load i32, ptr %73, align 8, !tbaa !31
  %75 = icmp sgt i32 %74, 0
  br i1 %75, label %76, label %77

76:                                               ; preds = %71
  br label %128

77:                                               ; preds = %71
  br label %78

78:                                               ; preds = %77
  br label %79

79:                                               ; preds = %78, %44
  %80 = load i64, ptr %16, align 8, !tbaa !29
  %81 = shl i64 %80, 8
  %82 = load ptr, ptr %12, align 8, !tbaa !16
  %83 = load i32, ptr %20, align 4, !tbaa !18
  %84 = sext i32 %83 to i64
  %85 = getelementptr inbounds i8, ptr %82, i64 %84
  %86 = load i8, ptr %85, align 1, !tbaa !35
  %87 = zext i8 %86 to i64
  %88 = or i64 %81, %87
  store i64 %88, ptr %16, align 8, !tbaa !29
  %89 = load i64, ptr %16, align 8, !tbaa !29
  %90 = call i64 @av_bswap64(i64 noundef %89) #6
  %91 = getelementptr inbounds [72 x i8], ptr %14, i64 0, i64 0
  store i64 %90, ptr %91, align 16, !tbaa !35
  %92 = getelementptr inbounds [72 x i8], ptr %14, i64 0, i64 0
  %93 = getelementptr inbounds i8, ptr %92, i64 8
  %94 = getelementptr inbounds i8, ptr %93, i64 -7
  %95 = call i32 @ff_adts_header_parse_buf(ptr noundef %94, ptr noundef %18)
  store i32 %95, ptr %19, align 4, !tbaa !18
  %96 = load i32, ptr %19, align 4, !tbaa !18
  %97 = icmp sgt i32 %96, 0
  br i1 %97, label %98, label %127

98:                                               ; preds = %79
  %99 = load i32, ptr %19, align 4, !tbaa !18
  %100 = sub nsw i32 %99, 6
  %101 = load ptr, ptr %15, align 8, !tbaa !24
  %102 = getelementptr inbounds nuw %struct.FTRParseContext, ptr %101, i32 0, i32 1
  store i32 %100, ptr %102, align 8, !tbaa !31
  %103 = getelementptr inbounds nuw %struct.AACADTSHeaderInfo, ptr %18, i32 0, i32 6
  %104 = load i8, ptr %103, align 1, !tbaa !36
  %105 = zext i8 %104 to i64
  %106 = getelementptr inbounds nuw [15 x i8], ptr @ff_mpeg4audio_channels, i64 0, i64 %105
  %107 = load i8, ptr %106, align 1, !tbaa !35
  %108 = zext i8 %107 to i32
  %109 = load ptr, ptr %15, align 8, !tbaa !24
  %110 = getelementptr inbounds nuw %struct.FTRParseContext, ptr %109, i32 0, i32 3
  %111 = load i32, ptr %110, align 8, !tbaa !38
  %112 = add nsw i32 %111, %108
  store i32 %112, ptr %110, align 8, !tbaa !38
  %113 = load ptr, ptr %15, align 8, !tbaa !24
  %114 = getelementptr inbounds nuw %struct.FTRParseContext, ptr %113, i32 0, i32 3
  %115 = load i32, ptr %114, align 8, !tbaa !38
  %116 = load ptr, ptr %9, align 8, !tbaa !9
  %117 = getelementptr inbounds nuw %struct.AVCodecContext, ptr %116, i32 0, i32 71
  %118 = getelementptr inbounds nuw %struct.AVChannelLayout, ptr %117, i32 0, i32 1
  %119 = load i32, ptr %118, align 4, !tbaa !39
  %120 = icmp sge i32 %115, %119
  br i1 %120, label %121, label %126

121:                                              ; preds = %98
  %122 = load ptr, ptr %15, align 8, !tbaa !24
  %123 = getelementptr inbounds nuw %struct.FTRParseContext, ptr %122, i32 0, i32 3
  store i32 0, ptr %123, align 8, !tbaa !38
  %124 = load ptr, ptr %15, align 8, !tbaa !24
  %125 = getelementptr inbounds nuw %struct.FTRParseContext, ptr %124, i32 0, i32 2
  store i32 1, ptr %125, align 4, !tbaa !32
  br label %126

126:                                              ; preds = %121, %98
  br label %127

127:                                              ; preds = %126, %79
  br label %128

128:                                              ; preds = %127, %76
  %129 = load i32, ptr %20, align 4, !tbaa !18
  %130 = add nsw i32 %129, 1
  store i32 %130, ptr %20, align 4, !tbaa !18
  br label %39, !llvm.loop !54

131:                                              ; preds = %63, %43
  call void @llvm.lifetime.end.p0(i64 4, ptr %20) #5
  br label %132

132:                                              ; preds = %131
  %133 = load i64, ptr %16, align 8, !tbaa !29
  %134 = load ptr, ptr %15, align 8, !tbaa !24
  %135 = getelementptr inbounds nuw %struct.FTRParseContext, ptr %134, i32 0, i32 0
  %136 = getelementptr inbounds nuw %struct.ParseContext, ptr %135, i32 0, i32 8
  store i64 %133, ptr %136, align 8, !tbaa !26
  %137 = load ptr, ptr %15, align 8, !tbaa !24
  %138 = getelementptr inbounds nuw %struct.FTRParseContext, ptr %137, i32 0, i32 0
  %139 = load i32, ptr %17, align 4, !tbaa !18
  %140 = call i32 @ff_combine_frame(ptr noundef %138, i32 noundef %139, ptr noundef %12, ptr noundef %13)
  %141 = icmp slt i32 %140, 0
  br i1 %141, label %142, label %146

142:                                              ; preds = %132
  %143 = load ptr, ptr %10, align 8, !tbaa !11
  store ptr null, ptr %143, align 8, !tbaa !16
  %144 = load ptr, ptr %11, align 8, !tbaa !14
  store i32 0, ptr %144, align 4, !tbaa !18
  %145 = load i32, ptr %13, align 4, !tbaa !18
  store i32 %145, ptr %7, align 4
  store i32 1, ptr %21, align 4
  br label %153

146:                                              ; preds = %132
  br label %147

147:                                              ; preds = %146, %36
  %148 = load ptr, ptr %12, align 8, !tbaa !16
  %149 = load ptr, ptr %10, align 8, !tbaa !11
  store ptr %148, ptr %149, align 8, !tbaa !16
  %150 = load i32, ptr %13, align 4, !tbaa !18
  %151 = load ptr, ptr %11, align 8, !tbaa !14
  store i32 %150, ptr %151, align 4, !tbaa !18
  %152 = load i32, ptr %17, align 4, !tbaa !18
  store i32 %152, ptr %7, align 4
  store i32 1, ptr %21, align 4
  br label %153

153:                                              ; preds = %147, %142
  call void @llvm.lifetime.end.p0(i64 4, ptr %19) #5
  call void @llvm.lifetime.end.p0(i64 24, ptr %18) #5
  call void @llvm.lifetime.end.p0(i64 4, ptr %17) #5
  call void @llvm.lifetime.end.p0(i64 8, ptr %16) #5
  call void @llvm.lifetime.end.p0(i64 8, ptr %15) #5
  call void @llvm.lifetime.end.p0(i64 72, ptr %14) #5
  %154 = load i32, ptr %7, align 4
  ret i32 %154
}