; Function Attrs: nounwind uwtable
define internal i32 @ftr_parse(ptr noundef captures(none) %0, ptr noundef readonly captures(none) %1, ptr noundef writeonly captures(none) initializes((0, 8)) %2, ptr noundef writeonly captures(none) initializes((0, 4)) %3, ptr noundef %4, i32 noundef %5) #0 {
  %7 = alloca ptr, align 8
  %8 = alloca i32, align 4
  %9 = alloca [72 x i8], align 16
  %10 = alloca %struct.AACADTSHeaderInfo, align 4
  store ptr %4, ptr %7, align 8, !tbaa !4
  store i32 %5, ptr %8, align 4, !tbaa !9
  call void @llvm.lifetime.start.p0(i64 72, ptr nonnull %9) #4
  %11 = load ptr, ptr %0, align 8, !tbaa !11
  %12 = getelementptr inbounds nuw i8, ptr %11, i64 40
  %13 = load i64, ptr %12, align 8, !tbaa !15
  call void @llvm.lifetime.start.p0(i64 24, ptr nonnull %10) #4
  store i32 0, ptr %3, align 4, !tbaa !9
  store ptr null, ptr %2, align 8, !tbaa !4
  %14 = getelementptr inbounds nuw i8, ptr %0, i64 184
  %15 = load i32, ptr %14, align 8, !tbaa !18
  %16 = and i32 %15, 1
  %.not = icmp eq i32 %16, 0
  br i1 %.not, label %.preheader, label %62

.preheader:                                       ; preds = %6
  %17 = icmp sgt i32 %5, 0
  br i1 %17, label %.lr.ph, label %.loopexit

.lr.ph:                                           ; preds = %.preheader
  %18 = getelementptr inbounds nuw i8, ptr %11, i64 48
  %19 = getelementptr inbounds nuw i8, ptr %11, i64 52
  %20 = getelementptr inbounds nuw i8, ptr %9, i64 1
  %21 = getelementptr inbounds nuw i8, ptr %10, i64 15
  %22 = getelementptr inbounds nuw i8, ptr %11, i64 56
  %23 = getelementptr inbounds nuw i8, ptr %1, i64 356
  %24 = zext nneg i32 %5 to i64
  br label %25

25:                                               ; preds = %.lr.ph, %.thread
  %indvars.iv = phi i64 [ 0, %.lr.ph ], [ %indvars.iv.next, %.thread ]
  %.03847 = phi i64 [ %13, %.lr.ph ], [ %.139, %.thread ]
  %26 = load i32, ptr %18, align 8, !tbaa !19
  %27 = icmp sgt i32 %26, 0
  br i1 %27, label %28, label %37

28:                                               ; preds = %25
  %29 = add nsw i32 %26, -1
  store i32 %29, ptr %18, align 8, !tbaa !19
  %30 = icmp eq i32 %29, 0
  br i1 %30, label %31, label %.thread

31:                                               ; preds = %28
  %32 = load i32, ptr %19, align 4, !tbaa !20
  %.not42 = icmp eq i32 %32, 0
  br i1 %.not42, label %37, label %33

33:                                               ; preds = %31
  %34 = trunc nuw nsw i64 %indvars.iv to i32
  store i32 0, ptr %19, align 4, !tbaa !20
  %35 = getelementptr inbounds nuw i8, ptr %0, i64 296
  store i32 1024, ptr %35, align 8, !tbaa !21
  %36 = getelementptr inbounds nuw i8, ptr %0, i64 232
  store i32 1, ptr %36, align 8, !tbaa !22
  br label %.loopexit

37:                                               ; preds = %31, %25
  %38 = shl i64 %.03847, 8
  %39 = getelementptr inbounds nuw i8, ptr %4, i64 %indvars.iv
  %40 = load i8, ptr %39, align 1, !tbaa !23
  %41 = zext i8 %40 to i64
  %42 = or disjoint i64 %38, %41
  %43 = call noundef i64 @llvm.bswap.i64(i64 %42)
  store i64 %43, ptr %9, align 16, !tbaa !23
  %44 = call i32 @ff_adts_header_parse_buf(ptr noundef nonnull %20, ptr noundef nonnull %10) #4
  %45 = icmp sgt i32 %44, 0
  br i1 %45, label %46, label %.thread

46:                                               ; preds = %37
  %47 = add nsw i32 %44, -6
  store i32 %47, ptr %18, align 8, !tbaa !19
  %48 = load i8, ptr %21, align 1, !tbaa !24
  %49 = zext i8 %48 to i64
  %50 = getelementptr inbounds nuw [15 x i8], ptr @ff_mpeg4audio_channels, i64 0, i64 %49
  %51 = load i8, ptr %50, align 1, !tbaa !23
  %52 = zext i8 %51 to i32
  %53 = load i32, ptr %22, align 8, !tbaa !26
  %54 = add nsw i32 %53, %52
  store i32 %54, ptr %22, align 8, !tbaa !26
  %55 = load i32, ptr %23, align 4, !tbaa !27
  %.not43 = icmp slt i32 %54, %55
  br i1 %.not43, label %.thread, label %56

56:                                               ; preds = %46
  store i32 0, ptr %22, align 8, !tbaa !26
  store i32 1, ptr %19, align 4, !tbaa !20
  br label %.thread

.thread:                                          ; preds = %28, %37, %56, %46
  %.139 = phi i64 [ %42, %56 ], [ %42, %46 ], [ %42, %37 ], [ %.03847, %28 ]
  %indvars.iv.next = add nuw nsw i64 %indvars.iv, 1
  %57 = icmp samesign ult i64 %indvars.iv.next, %24
  br i1 %57, label %25, label %.loopexit, !llvm.loop !44

.loopexit:                                        ; preds = %.thread, %.preheader, %33
  %.03846 = phi i64 [ %.03847, %33 ], [ %13, %.preheader ], [ %.139, %.thread ]
  %.1 = phi i32 [ %34, %33 ], [ -100, %.preheader ], [ -100, %.thread ]
  store i64 %.03846, ptr %12, align 8, !tbaa !15
  %58 = call i32 @ff_combine_frame(ptr noundef nonnull %11, i32 noundef %.1, ptr noundef nonnull %7, ptr noundef nonnull %8) #4
  %59 = icmp slt i32 %58, 0
  br i1 %59, label %60, label %.loopexit._crit_edge

.loopexit._crit_edge:                             ; preds = %.loopexit
  %.pre = load ptr, ptr %7, align 8, !tbaa !4
  %.pre52 = load i32, ptr %8, align 4, !tbaa !9
  br label %62

60:                                               ; preds = %.loopexit
  store ptr null, ptr %2, align 8, !tbaa !4
  store i32 0, ptr %3, align 4, !tbaa !9
  %61 = load i32, ptr %8, align 4, !tbaa !9
  br label %65

62:                                               ; preds = %.loopexit._crit_edge, %6
  %63 = phi i32 [ %.pre52, %.loopexit._crit_edge ], [ %5, %6 ]
  %64 = phi ptr [ %.pre, %.loopexit._crit_edge ], [ %4, %6 ]
  %.037 = phi i32 [ %.1, %.loopexit._crit_edge ], [ %5, %6 ]
  store ptr %64, ptr %2, align 8, !tbaa !4
  store i32 %63, ptr %3, align 4, !tbaa !9
  br label %65

65:                                               ; preds = %62, %60
  %.036 = phi i32 [ %.037, %62 ], [ %61, %60 ]
  call void @llvm.lifetime.end.p0(i64 24, ptr nonnull %10) #4
  call void @llvm.lifetime.end.p0(i64 72, ptr nonnull %9) #4
  ret i32 %.036
}